; ModuleID = '19/1245.c'
source_filename = "19/1245.c"
target datalayout = "e-m:e-p270:32:32-p271:32:32-p272:64:64-i64:64-f80:128-n8:16:32:64-S128"
target triple = "x86_64-pc-linux-gnu"

@.str = private unnamed_addr constant [3 x i8] c"%s\00", align 1
@.str.1 = private unnamed_addr constant [4 x i8] c"%s \00", align 1

; Function Attrs: noinline nounwind uwtable
define dso_local void @main() #0 {
  %1 = alloca i32, align 4
  %2 = alloca i32, align 4
  %3 = alloca [100 x i8*], align 16
  store i32 0, i32* %1, align 4
  %4 = call noalias i8* @malloc(i64 100) #4
  %5 = getelementptr inbounds [100 x i8*], [100 x i8*]* %3, i64 0, i64 0
  store i8* %4, i8** %5, align 16
  br label %6

6:                                                ; preds = %14, %0
  %7 = getelementptr inbounds [100 x i8*], [100 x i8*]* %3, i64 0, i64 0
  %8 = load i32, i32* %1, align 4
  %9 = sext i32 %8 to i64
  %10 = getelementptr inbounds i8*, i8** %7, i64 %9
  %11 = load i8*, i8** %10, align 8
  %12 = call i32 (i8*, ...) @__isoc99_scanf(i8* getelementptr inbounds ([3 x i8], [3 x i8]* @.str, i64 0, i64 0), i8* %11)
  %13 = icmp ne i32 %12, -1
  br i1 %13, label %14, label %21

14:                                               ; preds = %6
  %15 = load i32, i32* %1, align 4
  %16 = add nsw i32 %15, 1
  store i32 %16, i32* %1, align 4
  %17 = call noalias i8* @malloc(i64 100) #4
  %18 = load i32, i32* %1, align 4
  %19 = sext i32 %18 to i64
  %20 = getelementptr inbounds [100 x i8*], [100 x i8*]* %3, i64 0, i64 %19
  store i8* %17, i8** %20, align 8
  br label %6

21:                                               ; preds = %6
  %22 = load i32, i32* %1, align 4
  store i32 %22, i32* %2, align 4
  store i32 0, i32* %1, align 4
  br label %23

23:                                               ; preds = %75, %21
  %24 = load i32, i32* %1, align 4
  %25 = load i32, i32* %2, align 4
  %26 = sub nsw i32 %25, 2
  %27 = icmp slt i32 %24, %26
  br i1 %27, label %28, label %78

28:                                               ; preds = %23
  %29 = getelementptr inbounds [100 x i8*], [100 x i8*]* %3, i64 0, i64 0
  %30 = load i32, i32* %1, align 4
  %31 = sext i32 %30 to i64
  %32 = getelementptr inbounds i8*, i8** %29, i64 %31
  %33 = load i8*, i8** %32, align 8
  %34 = getelementptr inbounds [100 x i8*], [100 x i8*]* %3, i64 0, i64 0
  %35 = load i32, i32* %2, align 4
  %36 = sext i32 %35 to i64
  %37 = getelementptr inbounds i8*, i8** %34, i64 %36
  %38 = getelementptr inbounds i8*, i8** %37, i64 -2
  %39 = load i8*, i8** %38, align 8
  %40 = call i32 @strcmp(i8* %33, i8* %39) #5
  %41 = icmp eq i32 %40, 0
  br i1 %41, label %42, label %55

42:                                               ; preds = %28
  %43 = getelementptr inbounds [100 x i8*], [100 x i8*]* %3, i64 0, i64 0
  %44 = load i32, i32* %1, align 4
  %45 = sext i32 %44 to i64
  %46 = getelementptr inbounds i8*, i8** %43, i64 %45
  %47 = load i8*, i8** %46, align 8
  %48 = getelementptr inbounds [100 x i8*], [100 x i8*]* %3, i64 0, i64 0
  %49 = load i32, i32* %2, align 4
  %50 = sext i32 %49 to i64
  %51 = getelementptr inbounds i8*, i8** %48, i64 %50
  %52 = getelementptr inbounds i8*, i8** %51, i64 -1
  %53 = load i8*, i8** %52, align 8
  %54 = call i8* @strcpy(i8* %47, i8* %53) #4
  br label %55

55:                                               ; preds = %42, %28
  %56 = load i32, i32* %1, align 4
  %57 = load i32, i32* %2, align 4
  %58 = sub nsw i32 %57, 3
  %59 = icmp ne i32 %56, %58
  br i1 %59, label %60, label %67

60:                                               ; preds = %55
  %61 = getelementptr inbounds [100 x i8*], [100 x i8*]* %3, i64 0, i64 0
  %62 = load i32, i32* %1, align 4
  %63 = sext i32 %62 to i64
  %64 = getelementptr inbounds i8*, i8** %61, i64 %63
  %65 = load i8*, i8** %64, align 8
  %66 = call i32 (i8*, ...) @printf(i8* getelementptr inbounds ([4 x i8], [4 x i8]* @.str.1, i64 0, i64 0), i8* %65)
  br label %74

67:                                               ; preds = %55
  %68 = getelementptr inbounds [100 x i8*], [100 x i8*]* %3, i64 0, i64 0
  %69 = load i32, i32* %1, align 4
  %70 = sext i32 %69 to i64
  %71 = getelementptr inbounds i8*, i8** %68, i64 %70
  %72 = load i8*, i8** %71, align 8
  %73 = call i32 (i8*, ...) @printf(i8* getelementptr inbounds ([3 x i8], [3 x i8]* @.str, i64 0, i64 0), i8* %72)
  br label %74

74:                                               ; preds = %67, %60
  br label %75

75:                                               ; preds = %74
  %76 = load i32, i32* %1, align 4
  %77 = add nsw i32 %76, 1
  store i32 %77, i32* %1, align 4
  br label %23

78:                                               ; preds = %23
  ret void
}

; Function Attrs: nounwind
declare dso_local noalias i8* @malloc(i64) #1

declare dso_local i32 @__isoc99_scanf(i8*, ...) #2

; Function Attrs: nounwind readonly
declare dso_local i32 @strcmp(i8*, i8*) #3

; Function Attrs: nounwind
declare dso_local i8* @strcpy(i8*, i8*) #1

declare dso_local i32 @printf(i8*, ...) #2


!llvm.module.flags = !{!0}
!llvm.ident = !{!1}

!0 = !{i32 1, !"wchar_size", i32 4}
!1 = !{!"clang version 10.0.0-4ubuntu1 "}
